Certificate:
    Data:
        Version: 3 (0x2)
        Serial Number:
            d7:1a:43:8b:e1:4d:2d:1c
        Signature Algorithm: sha1WithRSAEncryption
        Issuer: C=JA, ST=Tokyo, O=demoCA, CN=demoCA
        Validity
            Not Before: Jul  6 10:24:58 2013 GMT
            Not After : Jul  5 10:24:58 2016 GMT
        Subject: C=JA, ST=Tokyo, O=demoCA, CN=demoCA
        Subject Public Key Info:
            Public Key Algorithm: rsaEncryption
            RSA Public Key: (1024 bit)
                Modulus (1024 bit):
                    00:bd:3f:ba:f8:a4:25:5c:7a:34:75:4c:70:94:63:
                    d8:b6:49:d1:f6:39:e7:2f:d5:a5:b5:5f:b4:7c:28:
                    be:71:86:fd:12:83:66:29:7c:de:73:fc:a8:d8:5e:
                    59:f1:51:54:ab:91:2e:a6:f6:d5:59:dd:25:18:80:
                    6a:ac:a3:b8:37:93:c6:f3:e3:dc:3d:e1:57:81:42:
                    ea:6c:d1:8a:6a:42:49:3a:df:1b:7c:03:75:4f:74:
                    f5:fc:ae:97:a7:5f:74:f2:bd:c1:a8:fe:ad:ca:a0:
                    4d:7a:86:d7:04:59:fd:3b:2a:ba:7f:7b:37:0b:08:
                    f0:b1:04:c7:a3:94:e8:96:bf
                Exponent: 65537 (0x10001)
        X509v3 extensions:
            X509v3 Subject Key Identifier: 
                8B:3D:3F:91:BF:11:F9:71:5F:80:E6:6D:4F:7A:B4:39:DD:6A:40:3D
            X509v3 Authority Key Identifier: 
                keyid:8B:3D:3F:91:BF:11:F9:71:5F:80:E6:6D:4F:7A:B4:39:DD:6A:40:3D
                DirName:/C=JA/ST=Tokyo/O=demoCA/CN=demoCA
                serial:D7:1A:43:8B:E1:4D:2D:1C

            X509v3 Basic Constraints: 
                CA:TRUE
    Signature Algorithm: sha1WithRSAEncryption
        5c:eb:92:ad:af:36:cb:d4:3a:cb:96:97:7e:07:33:27:db:27:
        6d:26:3d:94:17:03:58:94:f7:d2:64:7a:d3:b5:29:ce:04:c1:
        52:91:63:d4:62:25:ff:52:3c:51:24:d6:c9:97:6e:39:fe:1e:
        0e:65:bd:42:d1:51:ed:c4:df:35:69:7d:13:26:93:0e:64:fe:
        77:40:fd:ee:d1:94:a4:68:cd:c8:54:f6:86:d3:c7:65:75:b1:
        35:c4:12:72:41:11:b8:7f:2e:e9:14:37:87:c4:52:c7:ae:ac:
        f2:a6:5c:55:a6:dd:45:c5:f4:75:f1:38:7b:0e:64:f3:3e:ae:
        0d:a1
-----BEGIN CERTIFICATE-----
MIICnjCCAgegAwIBAgIJANcaQ4vhTS0cMA0GCSqGSIb3DQEBBQUAMD8xCzAJBgNV
BAYTAkpBMQ4wDAYDVQQIEwVUb2t5bzEPMA0GA1UEChMGZGVtb0NBMQ8wDQYDVQQD
EwZkZW1vQ0EwHhcNMTMwNzA2MTAyNDU4WhcNMTYwNzA1MTAyNDU4WjA/MQswCQYD
VQQGEwJKQTEOMAwGA1UECBMFVG9reW8xDzANBgNVBAoTBmRlbW9DQTEPMA0GA1UE
AxMGZGVtb0NBMIGfMA0GCSqGSIb3DQEBAQUAA4GNADCBiQKBgQC9P7r4pCVcejR1
THCUY9i2SdH2Oecv1aW1X7R8KL5xhv0Sg2YpfN5z/KjYXlnxUVSrkS6m9tVZ3SUY
gGqso7g3k8bz49w94VeBQups0YpqQkk63xt8A3VPdPX8rpenX3TyvcGo/q3KoE16
htcEWf07Krp/ezcLCPCxBMejlOiWvwIDAQABo4GhMIGeMB0GA1UdDgQWBBSLPT+R
vxH5cV+A5m1PerQ53WpAPTBvBgNVHSMEaDBmgBSLPT+RvxH5cV+A5m1PerQ53WpA
PaFDpEEwPzELMAkGA1UEBhMCSkExDjAMBgNVBAgTBVRva3lvMQ8wDQYDVQQKEwZk
ZW1vQ0ExDzANBgNVBAMTBmRlbW9DQYIJANcaQ4vhTS0cMAwGA1UdEwQFMAMBAf8w
DQYJKoZIhvcNAQEFBQADgYEAXOuSra82y9Q6y5aXfgczJ9snbSY9lBcDWJT30mR6
07UpzgTBUpFj1GIl/1I8USTWyZduOf4eDmW9QtFR7cTfNWl9EyaTDmT+d0D97tGU
pGjNyFT2htPHZXWxNcQSckERuH8u6RQ3h8RSx66s8qZcVabdRcX0dfE4ew5k8z6u
DaE=
-----END CERTIFICATE-----
