Certificate:
    Data:
        Version: 3 (0x2)
        Serial Number:
            d7:1a:43:8b:e1:4d:2d:1d
        Signature Algorithm: sha1WithRSAEncryption
        Issuer: C=JA, ST=Tokyo, O=demoCA, CN=demoCA
        Validity
            Not Before: Jul  6 11:56:45 2013 GMT
            Not After : Jul  4 11:56:45 2023 GMT
        Subject: C=JP, ST=Osaka, O=demoCA, CN=demoCA-client
        Subject Public Key Info:
            Public Key Algorithm: rsaEncryption
            RSA Public Key: (2048 bit)
                Modulus (2048 bit):
                    00:d2:3c:1a:1f:c2:e9:dd:11:49:fc:06:e3:23:1d:
                    71:75:76:d0:08:ed:d1:94:7b:a6:e9:36:40:54:ad:
                    be:82:a5:bc:12:a9:4f:ac:3e:3e:b6:3c:7d:dc:e5:
                    91:57:42:ee:c6:82:9e:a7:70:3c:c4:b0:6e:9d:da:
                    6d:41:a1:95:c8:10:25:9c:38:b3:5e:26:45:6e:f8:
                    f5:fa:a3:59:3c:9a:fa:46:0d:2a:0b:85:4c:a9:44:
                    de:c0:ac:fa:a4:8f:e3:e8:ab:57:5d:91:67:15:ae:
                    6b:90:ff:f1:f1:01:32:73:3a:72:58:58:87:8b:4a:
                    96:7f:73:c0:13:d9:89:42:15:a9:fc:6e:9d:45:ae:
                    99:57:dc:02:d1:31:14:86:c2:f1:34:9b:1f:44:b0:
                    0d:07:23:6d:5b:61:33:7b:30:8b:c4:ba:88:03:b3:
                    ab:c1:9e:30:86:41:cf:63:74:f3:25:fc:9e:98:eb:
                    94:28:37:0f:76:ae:25:fd:71:02:a8:53:8c:64:4a:
                    af:88:82:e6:8e:5c:94:57:9a:bb:50:79:45:18:b1:
                    55:cd:e1:2f:50:c1:ff:4d:59:7e:e2:b3:76:39:36:
                    7f:45:75:7d:f7:ed:45:12:a8:a7:bf:34:88:f6:81:
                    d9:06:21:7f:8c:0a:bd:41:67:25:8b:58:86:03:6b:
                    5b:7d
                Exponent: 65537 (0x10001)
        X509v3 extensions:
            X509v3 Basic Constraints: 
                CA:FALSE
            Netscape Comment: 
                OpenSSL Generated Certificate
            X509v3 Subject Key Identifier: 
                A9:69:85:B5:C4:84:61:52:11:C5:C5:3B:A2:95:C9:31:D5:AD:F0:D0
            X509v3 Authority Key Identifier: 
                keyid:8B:3D:3F:91:BF:11:F9:71:5F:80:E6:6D:4F:7A:B4:39:DD:6A:40:3D
                DirName:/C=JA/ST=Tokyo/O=demoCA/CN=demoCA
                serial:D7:1A:43:8B:E1:4D:2D:1C

    Signature Algorithm: sha1WithRSAEncryption
        11:22:f0:8e:57:d5:fc:2f:82:33:76:90:c3:d0:fe:f5:9b:dd:
        c1:8e:ac:a1:35:e3:0c:65:12:2c:07:d6:ac:f6:57:62:08:8b:
        81:96:5f:c3:c4:e2:43:bf:d6:a2:08:99:58:5b:af:1b:bb:96:
        4b:69:9e:4d:e5:d3:a5:6f:80:ca:d8:d2:a9:dc:4f:46:48:a4:
        59:f4:0b:a5:fa:f2:ad:3e:e0:74:e4:d7:ee:b2:0a:f0:da:94:
        c6:38:75:0f:be:33:97:54:5d:63:58:7e:01:64:84:ce:2a:7b:
        9b:e4:59:01:8d:84:8e:a6:48:b6:a5:9b:43:4f:aa:38:3a:2c:
        3f:33
-----BEGIN CERTIFICATE-----
MIIDVDCCAr2gAwIBAgIJANcaQ4vhTS0dMA0GCSqGSIb3DQEBBQUAMD8xCzAJBgNV
BAYTAkpBMQ4wDAYDVQQIEwVUb2t5bzEPMA0GA1UEChMGZGVtb0NBMQ8wDQYDVQQD
EwZkZW1vQ0EwHhcNMTMwNzA2MTE1NjQ1WhcNMjMwNzA0MTE1NjQ1WjBGMQswCQYD
VQQGEwJKUDEOMAwGA1UECBMFT3Nha2ExDzANBgNVBAoTBmRlbW9DQTEWMBQGA1UE
AxMNZGVtb0NBLWNsaWVudDCCASIwDQYJKoZIhvcNAQEBBQADggEPADCCAQoCggEB
ANI8Gh/C6d0RSfwG4yMdcXV20Ajt0ZR7puk2QFStvoKlvBKpT6w+PrY8fdzlkVdC
7saCnqdwPMSwbp3abUGhlcgQJZw4s14mRW749fqjWTya+kYNKguFTKlE3sCs+qSP
4+irV12RZxWua5D/8fEBMnM6clhYh4tKln9zwBPZiUIVqfxunUWumVfcAtExFIbC
8TSbH0SwDQcjbVthM3swi8S6iAOzq8GeMIZBz2N08yX8npjrlCg3D3auJf1xAqhT
jGRKr4iC5o5clFeau1B5RRixVc3hL1DB/01ZfuKzdjk2f0V1ffftRRKop780iPaB
2QYhf4wKvUFnJYtYhgNrW30CAwEAAaOBzDCByTAJBgNVHRMEAjAAMCwGCWCGSAGG
+EIBDQQfFh1PcGVuU1NMIEdlbmVyYXRlZCBDZXJ0aWZpY2F0ZTAdBgNVHQ4EFgQU
qWmFtcSEYVIRxcU7opXJMdWt8NAwbwYDVR0jBGgwZoAUiz0/kb8R+XFfgOZtT3q0
Od1qQD2hQ6RBMD8xCzAJBgNVBAYTAkpBMQ4wDAYDVQQIEwVUb2t5bzEPMA0GA1UE
ChMGZGVtb0NBMQ8wDQYDVQQDEwZkZW1vQ0GCCQDXGkOL4U0tHDANBgkqhkiG9w0B
AQUFAAOBgQARIvCOV9X8L4IzdpDD0P71m93BjqyhNeMMZRIsB9as9ldiCIuBll/D
xOJDv9aiCJlYW68bu5ZLaZ5N5dOlb4DK2NKp3E9GSKRZ9Aul+vKtPuB05Nfusgrw
2pTGOHUPvjOXVF1jWH4BZITOKnub5FkBjYSOpki2pZtDT6o4Oiw/Mw==
-----END CERTIFICATE-----
